target datalayout = "e-m:e-p270:32:32-p271:32:32-p272:64:64-i64:64-i128:128-f80:128-n8:16:32:64-S128"
target triple = "x86_64-pc-linux-gnu"

%struct.ecx_key_st = type { ptr, ptr, i8, [57 x i8], ptr, i64, i32, %struct.CRYPTO_REF_COUNT }
%struct.CRYPTO_REF_COUNT = type { i32 }
%struct.PROV_ECX_CTX = type { ptr, ptr, ptr, ptr, i32, i32, ptr, i64, ptr, ptr }

@.str = private unnamed_addr constant [51 x i8] c"../openssl/providers/implementations/kem/ecx_kem.c\00", align 1
@.str.2 = private unnamed_addr constant [5 x i8] c"HKDF\00", align 1
@.str.5 = private unnamed_addr constant [7 x i8] c"X25519\00", align 1
@.str.6 = private unnamed_addr constant [5 x i8] c"X448\00", align 1

; Function Attrs: nounwind uwtable
define internal ptr @get_kem_info(ptr noundef %0) #0 {
  %2 = alloca ptr, align 8
  %3 = alloca ptr, align 8
  store ptr %0, ptr %2, align 8, !tbaa !3
  call void @llvm.lifetime.start.p0(i64 8, ptr %3) #5
  store ptr null, ptr %3, align 8, !tbaa !8
  %4 = load ptr, ptr %2, align 8, !tbaa !3
  %5 = getelementptr inbounds nuw %struct.ecx_key_st, ptr %4, i32 0, i32 6
  %6 = load i32, ptr %5, align 8, !tbaa !29
  %7 = icmp eq i32 %6, 0
  br i1 %7, label %8, label %9

8:                                                ; preds = %1
  store ptr @.str.5, ptr %3, align 8, !tbaa !8
  br label %10

9:                                                ; preds = %1
  store ptr @.str.6, ptr %3, align 8, !tbaa !8
  br label %10

10:                                               ; preds = %9, %8
  %11 = load ptr, ptr %3, align 8, !tbaa !8
  %12 = call ptr @ossl_HPKE_KEM_INFO_find_curve(ptr noundef %11)
  call void @llvm.lifetime.end.p0(i64 8, ptr %3) #5
  ret ptr %12
}

; Function Attrs: nounwind uwtable
define internal i32 @sender_authkey_set(ptr noundef %0, ptr noundef %1) #0 {
  %3 = alloca i32, align 4
  %4 = alloca ptr, align 8
  %5 = alloca ptr, align 8
  store ptr %0, ptr %4, align 8, !tbaa !16
  store ptr %1, ptr %5, align 8, !tbaa !3
  %6 = load ptr, ptr %4, align 8, !tbaa !16
  %7 = getelementptr inbounds nuw %struct.PROV_ECX_CTX, ptr %6, i32 0, i32 1
  %8 = load ptr, ptr %7, align 8, !tbaa !49
  call void @ossl_ecx_key_free(ptr noundef %8)
  %9 = load ptr, ptr %4, align 8, !tbaa !16
  %10 = getelementptr inbounds nuw %struct.PROV_ECX_CTX, ptr %9, i32 0, i32 1
  store ptr null, ptr %10, align 8, !tbaa !49
  %11 = load ptr, ptr %5, align 8, !tbaa !3
  %12 = icmp ne ptr %11, null
  br i1 %12, label %13, label %22

13:                                               ; preds = %2
  %14 = load ptr, ptr %5, align 8, !tbaa !3
  %15 = call i32 @ossl_ecx_key_up_ref(ptr noundef %14)
  %16 = icmp ne i32 %15, 0
  br i1 %16, label %18, label %17

17:                                               ; preds = %13
  store i32 0, ptr %3, align 4
  br label %23

18:                                               ; preds = %13
  %19 = load ptr, ptr %5, align 8, !tbaa !3
  %20 = load ptr, ptr %4, align 8, !tbaa !16
  %21 = getelementptr inbounds nuw %struct.PROV_ECX_CTX, ptr %20, i32 0, i32 1
  store ptr %19, ptr %21, align 8, !tbaa !49
  br label %22

22:                                               ; preds = %18, %2
  store i32 1, ptr %3, align 4
  br label %23

23:                                               ; preds = %22, %17
  %24 = load i32, ptr %3, align 4
  ret i32 %24
}

; Function Attrs: nounwind uwtable
define internal i32 @recipient_key_set(ptr noundef %0, ptr noundef %1) #0 {
  %3 = alloca i32, align 4
  %4 = alloca ptr, align 8
  %5 = alloca ptr, align 8
  store ptr %0, ptr %4, align 8, !tbaa !16
  store ptr %1, ptr %5, align 8, !tbaa !3
  %6 = load ptr, ptr %4, align 8, !tbaa !16
  %7 = getelementptr inbounds nuw %struct.PROV_ECX_CTX, ptr %6, i32 0, i32 0
  %8 = load ptr, ptr %7, align 8, !tbaa !43
  call void @ossl_ecx_key_free(ptr noundef %8)
  %9 = load ptr, ptr %4, align 8, !tbaa !16
  %10 = getelementptr inbounds nuw %struct.PROV_ECX_CTX, ptr %9, i32 0, i32 0
  store ptr null, ptr %10, align 8, !tbaa !43
  %11 = load ptr, ptr %5, align 8, !tbaa !3
  %12 = icmp ne ptr %11, null
  br i1 %12, label %13, label %34

13:                                               ; preds = %2
  %14 = load ptr, ptr %5, align 8, !tbaa !3
  %15 = call ptr @get_kem_info(ptr noundef %14)
  %16 = load ptr, ptr %4, align 8, !tbaa !16
  %17 = getelementptr inbounds nuw %struct.PROV_ECX_CTX, ptr %16, i32 0, i32 9
  store ptr %15, ptr %17, align 8, !tbaa !46
  %18 = load ptr, ptr %4, align 8, !tbaa !16
  %19 = getelementptr inbounds nuw %struct.PROV_ECX_CTX, ptr %18, i32 0, i32 9
  %20 = load ptr, ptr %19, align 8, !tbaa !46
  %21 = icmp eq ptr %20, null
  br i1 %21, label %22, label %23

22:                                               ; preds = %13
  store i32 -2, ptr %3, align 4
  br label %35

23:                                               ; preds = %13
  %24 = load ptr, ptr %4, align 8, !tbaa !16
  %25 = getelementptr inbounds nuw %struct.PROV_ECX_CTX, ptr %24, i32 0, i32 8
  store ptr @.str.2, ptr %25, align 8, !tbaa !47
  %26 = load ptr, ptr %5, align 8, !tbaa !3
  %27 = call i32 @ossl_ecx_key_up_ref(ptr noundef %26)
  %28 = icmp ne i32 %27, 0
  br i1 %28, label %30, label %29

29:                                               ; preds = %23
  store i32 0, ptr %3, align 4
  br label %35

30:                                               ; preds = %23
  %31 = load ptr, ptr %5, align 8, !tbaa !3
  %32 = load ptr, ptr %4, align 8, !tbaa !16
  %33 = getelementptr inbounds nuw %struct.PROV_ECX_CTX, ptr %32, i32 0, i32 0
  store ptr %31, ptr %33, align 8, !tbaa !43
  br label %34

34:                                               ; preds = %30, %2
  store i32 1, ptr %3, align 4
  br label %35

35:                                               ; preds = %34, %29, %22
  %36 = load i32, ptr %3, align 4
  ret i32 %36
}

; Function Attrs: nounwind uwtable
define internal void @ecxkem_freectx(ptr noundef %0) #0 {
  %2 = alloca ptr, align 8
  %3 = alloca ptr, align 8
  store ptr %0, ptr %2, align 8, !tbaa !16
  call void @llvm.lifetime.start.p0(i64 8, ptr %3) #5
  %4 = load ptr, ptr %2, align 8, !tbaa !16
  store ptr %4, ptr %3, align 8, !tbaa !16
  %5 = load ptr, ptr %3, align 8, !tbaa !16
  %6 = getelementptr inbounds nuw %struct.PROV_ECX_CTX, ptr %5, i32 0, i32 6
  %7 = load ptr, ptr %6, align 8, !tbaa !37
  %8 = load ptr, ptr %3, align 8, !tbaa !16
  %9 = getelementptr inbounds nuw %struct.PROV_ECX_CTX, ptr %8, i32 0, i32 7
  %10 = load i64, ptr %9, align 8, !tbaa !38
  call void @CRYPTO_clear_free(ptr noundef %7, i64 noundef %10, ptr noundef @.str, i32 noundef 173)
  %11 = load ptr, ptr %3, align 8, !tbaa !16
  %12 = call i32 @recipient_key_set(ptr noundef %11, ptr noundef null)
  %13 = load ptr, ptr %3, align 8, !tbaa !16
  %14 = call i32 @sender_authkey_set(ptr noundef %13, ptr noundef null)
  %15 = load ptr, ptr %3, align 8, !tbaa !16
  call void @CRYPTO_free(ptr noundef %15, ptr noundef @.str, i32 noundef 176)
  call void @llvm.lifetime.end.p0(i64 8, ptr %3) #5
  ret void
}